target datalayout = "e-m:e-p270:32:32-p271:32:32-p272:64:64-i64:64-i128:128-f80:128-n8:16:32:64-S128"
target triple = "x86_64-pc-linux-gnu"

%struct.jpeg_compress_struct = type { ptr, ptr, ptr, ptr, i32, i32, ptr, i32, i32, i32, i32, double, i32, i32, i32, ptr, [4 x ptr], [4 x ptr], [4 x ptr], [16 x i8], [16 x i8], [16 x i8], i32, ptr, i32, i32, i32, i32, i32, i32, i32, i32, i32, i8, i8, i8, i16, i16, i32, i32, i32, i32, i32, i32, i32, [4 x ptr], i32, i32, i32, [10 x i32], i32, i32, i32, i32, ptr, ptr, ptr, ptr, ptr, ptr, ptr, ptr, ptr, ptr, i32 }
%struct.ppm_source_struct = type { %struct.cjpeg_source_struct, ptr, ptr, i64, ptr, i32 }
%struct.cjpeg_source_struct = type { ptr, ptr, ptr, ptr, ptr, ptr, ptr, i32, i32 }

; Function Attrs: nounwind uwtable
define internal i32 @get_text_gray_row(ptr noundef %0, ptr noundef %1) #0 {
  %3 = alloca ptr, align 8
  %4 = alloca ptr, align 8
  %5 = alloca ptr, align 8
  %6 = alloca ptr, align 8
  %7 = alloca ptr, align 8
  %8 = alloca ptr, align 8
  %9 = alloca i32, align 4
  %10 = alloca i32, align 4
  store ptr %0, ptr %3, align 8, !tbaa !4
  store ptr %1, ptr %4, align 8, !tbaa !46
  call void @llvm.lifetime.start.p0(i64 8, ptr %5) #6
  %11 = load ptr, ptr %4, align 8, !tbaa !46
  store ptr %11, ptr %5, align 8, !tbaa !37
  call void @llvm.lifetime.start.p0(i64 8, ptr %6) #6
  %12 = load ptr, ptr %5, align 8, !tbaa !37
  %13 = getelementptr inbounds nuw %struct.ppm_source_struct, ptr %12, i32 0, i32 0
  %14 = getelementptr inbounds nuw %struct.cjpeg_source_struct, ptr %13, i32 0, i32 3
  %15 = load ptr, ptr %14, align 8, !tbaa !48
  store ptr %15, ptr %6, align 8, !tbaa !70
  call void @llvm.lifetime.start.p0(i64 8, ptr %7) #6
  call void @llvm.lifetime.start.p0(i64 8, ptr %8) #6
  %16 = load ptr, ptr %5, align 8, !tbaa !37
  %17 = getelementptr inbounds nuw %struct.ppm_source_struct, ptr %16, i32 0, i32 4
  %18 = load ptr, ptr %17, align 8, !tbaa !66
  store ptr %18, ptr %8, align 8, !tbaa !73
  call void @llvm.lifetime.start.p0(i64 4, ptr %9) #6
  call void @llvm.lifetime.start.p0(i64 4, ptr %10) #6
  %19 = load ptr, ptr %5, align 8, !tbaa !37
  %20 = getelementptr inbounds nuw %struct.ppm_source_struct, ptr %19, i32 0, i32 5
  %21 = load i32, ptr %20, align 8, !tbaa !53
  store i32 %21, ptr %10, align 4, !tbaa !49
  %22 = load ptr, ptr %5, align 8, !tbaa !37
  %23 = getelementptr inbounds nuw %struct.ppm_source_struct, ptr %22, i32 0, i32 0
  %24 = getelementptr inbounds nuw %struct.cjpeg_source_struct, ptr %23, i32 0, i32 4
  %25 = load ptr, ptr %24, align 8, !tbaa !63
  %26 = getelementptr inbounds ptr, ptr %25, i64 0
  %27 = load ptr, ptr %26, align 8, !tbaa !73
  store ptr %27, ptr %7, align 8, !tbaa !73
  %28 = load ptr, ptr %3, align 8, !tbaa !4
  %29 = getelementptr inbounds nuw %struct.jpeg_compress_struct, ptr %28, i32 0, i32 7
  %30 = load i32, ptr %29, align 8, !tbaa !51
  store i32 %30, ptr %9, align 4, !tbaa !49
  br label %31

31:                                               ; preds = %45, %2
  %32 = load i32, ptr %9, align 4, !tbaa !49
  %33 = icmp ugt i32 %32, 0
  br i1 %33, label %34, label %48

34:                                               ; preds = %31
  %35 = load ptr, ptr %8, align 8, !tbaa !73
  %36 = load ptr, ptr %3, align 8, !tbaa !4
  %37 = load ptr, ptr %6, align 8, !tbaa !70
  %38 = load i32, ptr %10, align 4, !tbaa !49
  %39 = call i32 @read_pbm_integer(ptr noundef %36, ptr noundef %37, i32 noundef %38)
  %40 = zext i32 %39 to i64
  %41 = getelementptr inbounds nuw i8, ptr %35, i64 %40
  %42 = load i8, ptr %41, align 1, !tbaa !32
  %43 = load ptr, ptr %7, align 8, !tbaa !73
  %44 = getelementptr inbounds nuw i8, ptr %43, i32 1
  store ptr %44, ptr %7, align 8, !tbaa !73
  store i8 %42, ptr %43, align 1, !tbaa !32
  br label %45

45:                                               ; preds = %34
  %46 = load i32, ptr %9, align 4, !tbaa !49
  %47 = add i32 %46, -1
  store i32 %47, ptr %9, align 4, !tbaa !49
  br label %31, !llvm.loop !74

48:                                               ; preds = %31
  call void @llvm.lifetime.end.p0(i64 4, ptr %10) #6
  call void @llvm.lifetime.end.p0(i64 4, ptr %9) #6
  call void @llvm.lifetime.end.p0(i64 8, ptr %8) #6
  call void @llvm.lifetime.end.p0(i64 8, ptr %7) #6
  call void @llvm.lifetime.end.p0(i64 8, ptr %6) #6
  call void @llvm.lifetime.end.p0(i64 8, ptr %5) #6
  ret i32 1
}