; Function Attrs: nounwind uwtable
define internal noundef i32 @get_text_gray_row(ptr noundef %0, ptr noundef readonly captures(none) %1) #0 {
  %3 = getelementptr inbounds nuw i8, ptr %1, i64 24
  %4 = load ptr, ptr %3, align 8, !tbaa !43
  %5 = getelementptr inbounds nuw i8, ptr %1, i64 88
  %6 = load ptr, ptr %5, align 8, !tbaa !59
  %7 = getelementptr inbounds nuw i8, ptr %1, i64 96
  %8 = load i32, ptr %7, align 8, !tbaa !47
  %9 = getelementptr inbounds nuw i8, ptr %0, i64 48
  %10 = load i32, ptr %9, align 8, !tbaa !45
  %.not13 = icmp eq i32 %10, 0
  br i1 %.not13, label %._crit_edge, label %.lr.ph.preheader

.lr.ph.preheader:                                 ; preds = %2
  %11 = getelementptr inbounds nuw i8, ptr %1, i64 32
  %12 = load ptr, ptr %11, align 8, !tbaa !57
  %13 = load ptr, ptr %12, align 8, !tbaa !63
  br label %.lr.ph

.lr.ph:                                           ; preds = %.lr.ph.preheader, %.lr.ph
  %.015 = phi ptr [ %18, %.lr.ph ], [ %13, %.lr.ph.preheader ]
  %.01214 = phi i32 [ %19, %.lr.ph ], [ %10, %.lr.ph.preheader ]
  %14 = tail call fastcc i32 @read_pbm_integer(ptr noundef %0, ptr noundef %4, i32 noundef %8)
  %15 = zext i32 %14 to i64
  %16 = getelementptr inbounds nuw i8, ptr %6, i64 %15
  %17 = load i8, ptr %16, align 1, !tbaa !30
  %18 = getelementptr inbounds nuw i8, ptr %.015, i64 1
  store i8 %17, ptr %.015, align 1, !tbaa !30
  %19 = add i32 %.01214, -1
  %.not = icmp eq i32 %19, 0
  br i1 %.not, label %._crit_edge, label %.lr.ph, !llvm.loop !64

._crit_edge:                                      ; preds = %.lr.ph, %2
  ret i32 1
}